target datalayout = "e-m:e-p270:32:32-p271:32:32-p272:64:64-i64:64-i128:128-f80:128-n8:16:32:64-S128"
target triple = "x86_64-pc-linux-gnu"

%struct.CORD_Pos = type { i64, i32, ptr, i64, i64, [49 x %struct.CORD_pe], [8 x i8] }
%struct.CORD_pe = type { ptr, i64 }

; Function Attrs: nounwind uwtable
define i32 @CORD_ncmp(ptr noundef %0, i64 noundef %1, ptr noundef %2, i64 noundef %3, i64 noundef %4) #0 {
  %6 = alloca i32, align 4
  %7 = alloca ptr, align 8
  %8 = alloca i64, align 8
  %9 = alloca ptr, align 8
  %10 = alloca i64, align 8
  %11 = alloca i64, align 8
  %12 = alloca [1 x %struct.CORD_Pos], align 16
  %13 = alloca [1 x %struct.CORD_Pos], align 16
  %14 = alloca i64, align 8
  %15 = alloca i64, align 8
  %16 = alloca i64, align 8
  %17 = alloca i32, align 4
  %18 = alloca i8, align 1
  %19 = alloca i8, align 1
  %20 = alloca i32, align 4
  store ptr %0, ptr %7, align 8, !tbaa !3
  store i64 %1, ptr %8, align 8, !tbaa !11
  store ptr %2, ptr %9, align 8, !tbaa !3
  store i64 %3, ptr %10, align 8, !tbaa !11
  store i64 %4, ptr %11, align 8, !tbaa !11
  call void @llvm.lifetime.start.p0(i64 832, ptr %12) #9
  call void @llvm.lifetime.start.p0(i64 832, ptr %13) #9
  call void @llvm.lifetime.start.p0(i64 8, ptr %14) #9
  %21 = getelementptr inbounds [1 x %struct.CORD_Pos], ptr %12, i64 0, i64 0
  %22 = load ptr, ptr %7, align 8, !tbaa !3
  %23 = load i64, ptr %8, align 8, !tbaa !11
  call void @CORD_set_pos(ptr noundef %21, ptr noundef %22, i64 noundef %23)
  %24 = getelementptr inbounds [1 x %struct.CORD_Pos], ptr %13, i64 0, i64 0
  %25 = load ptr, ptr %9, align 8, !tbaa !3
  %26 = load i64, ptr %10, align 8, !tbaa !11
  call void @CORD_set_pos(ptr noundef %24, ptr noundef %25, i64 noundef %26)
  store i64 0, ptr %14, align 8, !tbaa !11
  br label %27

27:                                               ; preds = %265, %5
  %28 = load i64, ptr %14, align 8, !tbaa !11
  %29 = load i64, ptr %11, align 8, !tbaa !11
  %30 = icmp ult i64 %28, %29
  br i1 %30, label %31, label %266

31:                                               ; preds = %27
  call void @llvm.lifetime.start.p0(i64 8, ptr %15) #9
  call void @llvm.lifetime.start.p0(i64 8, ptr %16) #9
  %32 = getelementptr inbounds [1 x %struct.CORD_Pos], ptr %12, i64 0, i64 0
  %33 = getelementptr inbounds nuw %struct.CORD_Pos, ptr %32, i32 0, i32 1
  %34 = load i32, ptr %33, align 8, !tbaa !17
  %35 = icmp ne i32 %34, 1431655765
  br i1 %35, label %42, label %36

36:                                               ; preds = %31
  %37 = getelementptr inbounds [1 x %struct.CORD_Pos], ptr %13, i64 0, i64 0
  %38 = getelementptr inbounds nuw %struct.CORD_Pos, ptr %37, i32 0, i32 1
  %39 = load i32, ptr %38, align 8, !tbaa !17
  %40 = icmp ne i32 %39, 1431655765
  %41 = select i1 %40, i32 -1, i32 0
  store i32 %41, ptr %6, align 4
  store i32 1, ptr %17, align 4
  br label %263

42:                                               ; preds = %31
  %43 = getelementptr inbounds [1 x %struct.CORD_Pos], ptr %13, i64 0, i64 0
  %44 = getelementptr inbounds nuw %struct.CORD_Pos, ptr %43, i32 0, i32 1
  %45 = load i32, ptr %44, align 8, !tbaa !17
  %46 = icmp ne i32 %45, 1431655765
  br i1 %46, label %48, label %47

47:                                               ; preds = %42
  store i32 1, ptr %6, align 4
  store i32 1, ptr %17, align 4
  br label %263

48:                                               ; preds = %42
  %49 = getelementptr inbounds [1 x %struct.CORD_Pos], ptr %12, i64 0, i64 0
  %50 = getelementptr inbounds nuw %struct.CORD_Pos, ptr %49, i32 0, i32 4
  %51 = load i64, ptr %50, align 16, !tbaa !19
  %52 = getelementptr inbounds [1 x %struct.CORD_Pos], ptr %12, i64 0, i64 0
  %53 = getelementptr inbounds nuw %struct.CORD_Pos, ptr %52, i32 0, i32 0
  %54 = load i64, ptr %53, align 16, !tbaa !20
  %55 = sub nsw i64 %51, %54
  store i64 %55, ptr %15, align 8, !tbaa !11
  %56 = icmp sle i64 %55, 0
  br i1 %56, label %66, label %57

57:                                               ; preds = %48
  %58 = getelementptr inbounds [1 x %struct.CORD_Pos], ptr %13, i64 0, i64 0
  %59 = getelementptr inbounds nuw %struct.CORD_Pos, ptr %58, i32 0, i32 4
  %60 = load i64, ptr %59, align 16, !tbaa !19
  %61 = getelementptr inbounds [1 x %struct.CORD_Pos], ptr %13, i64 0, i64 0
  %62 = getelementptr inbounds nuw %struct.CORD_Pos, ptr %61, i32 0, i32 0
  %63 = load i64, ptr %62, align 16, !tbaa !20
  %64 = sub nsw i64 %60, %63
  store i64 %64, ptr %16, align 8, !tbaa !11
  %65 = icmp sle i64 %64, 0
  br i1 %65, label %66, label %166

66:                                               ; preds = %57, %48
  call void @llvm.lifetime.start.p0(i64 1, ptr %18) #9
  %67 = getelementptr inbounds [1 x %struct.CORD_Pos], ptr %12, i64 0, i64 0
  %68 = getelementptr inbounds nuw %struct.CORD_Pos, ptr %67, i32 0, i32 4
  %69 = load i64, ptr %68, align 16, !tbaa !19
  %70 = icmp ne i64 %69, 0
  br i1 %70, label %71, label %85

71:                                               ; preds = %66
  %72 = getelementptr inbounds [1 x %struct.CORD_Pos], ptr %12, i64 0, i64 0
  %73 = getelementptr inbounds nuw %struct.CORD_Pos, ptr %72, i32 0, i32 2
  %74 = load ptr, ptr %73, align 16, !tbaa !21
  %75 = getelementptr inbounds [1 x %struct.CORD_Pos], ptr %12, i64 0, i64 0
  %76 = getelementptr inbounds nuw %struct.CORD_Pos, ptr %75, i32 0, i32 0
  %77 = load i64, ptr %76, align 16, !tbaa !20
  %78 = getelementptr inbounds [1 x %struct.CORD_Pos], ptr %12, i64 0, i64 0
  %79 = getelementptr inbounds nuw %struct.CORD_Pos, ptr %78, i32 0, i32 3
  %80 = load i64, ptr %79, align 8, !tbaa !22
  %81 = sub i64 %77, %80
  %82 = getelementptr inbounds nuw i8, ptr %74, i64 %81
  %83 = load i8, ptr %82, align 1, !tbaa !8
  %84 = sext i8 %83 to i32
  br label %89

85:                                               ; preds = %66
  %86 = getelementptr inbounds [1 x %struct.CORD_Pos], ptr %12, i64 0, i64 0
  %87 = call signext i8 @CORD__pos_fetch(ptr noundef %86)
  %88 = sext i8 %87 to i32
  br label %89

89:                                               ; preds = %85, %71
  %90 = phi i32 [ %84, %71 ], [ %88, %85 ]
  %91 = trunc i32 %90 to i8
  store i8 %91, ptr %18, align 1, !tbaa !8
  call void @llvm.lifetime.start.p0(i64 1, ptr %19) #9
  %92 = getelementptr inbounds [1 x %struct.CORD_Pos], ptr %13, i64 0, i64 0
  %93 = getelementptr inbounds nuw %struct.CORD_Pos, ptr %92, i32 0, i32 4
  %94 = load i64, ptr %93, align 16, !tbaa !19
  %95 = icmp ne i64 %94, 0
  br i1 %95, label %96, label %110

96:                                               ; preds = %89
  %97 = getelementptr inbounds [1 x %struct.CORD_Pos], ptr %13, i64 0, i64 0
  %98 = getelementptr inbounds nuw %struct.CORD_Pos, ptr %97, i32 0, i32 2
  %99 = load ptr, ptr %98, align 16, !tbaa !21
  %100 = getelementptr inbounds [1 x %struct.CORD_Pos], ptr %13, i64 0, i64 0
  %101 = getelementptr inbounds nuw %struct.CORD_Pos, ptr %100, i32 0, i32 0
  %102 = load i64, ptr %101, align 16, !tbaa !20
  %103 = getelementptr inbounds [1 x %struct.CORD_Pos], ptr %13, i64 0, i64 0
  %104 = getelementptr inbounds nuw %struct.CORD_Pos, ptr %103, i32 0, i32 3
  %105 = load i64, ptr %104, align 8, !tbaa !22
  %106 = sub i64 %102, %105
  %107 = getelementptr inbounds nuw i8, ptr %99, i64 %106
  %108 = load i8, ptr %107, align 1, !tbaa !8
  %109 = sext i8 %108 to i32
  br label %114

110:                                              ; preds = %89
  %111 = getelementptr inbounds [1 x %struct.CORD_Pos], ptr %13, i64 0, i64 0
  %112 = call signext i8 @CORD__pos_fetch(ptr noundef %111)
  %113 = sext i8 %112 to i32
  br label %114

114:                                              ; preds = %110, %96
  %115 = phi i32 [ %109, %96 ], [ %113, %110 ]
  %116 = trunc i32 %115 to i8
  store i8 %116, ptr %19, align 1, !tbaa !8
  %117 = load i8, ptr %18, align 1, !tbaa !8
  %118 = sext i8 %117 to i32
  %119 = load i8, ptr %19, align 1, !tbaa !8
  %120 = sext i8 %119 to i32
  %121 = icmp ne i32 %118, %120
  br i1 %121, label %122, label %128

122:                                              ; preds = %114
  %123 = load i8, ptr %18, align 1, !tbaa !8
  %124 = sext i8 %123 to i32
  %125 = load i8, ptr %19, align 1, !tbaa !8
  %126 = sext i8 %125 to i32
  %127 = sub nsw i32 %124, %126
  store i32 %127, ptr %6, align 4
  store i32 1, ptr %17, align 4
  br label %163

128:                                              ; preds = %114
  %129 = getelementptr inbounds [1 x %struct.CORD_Pos], ptr %12, i64 0, i64 0
  %130 = getelementptr inbounds nuw %struct.CORD_Pos, ptr %129, i32 0, i32 0
  %131 = load i64, ptr %130, align 16, !tbaa !20
  %132 = add i64 %131, 1
  %133 = getelementptr inbounds [1 x %struct.CORD_Pos], ptr %12, i64 0, i64 0
  %134 = getelementptr inbounds nuw %struct.CORD_Pos, ptr %133, i32 0, i32 4
  %135 = load i64, ptr %134, align 16, !tbaa !19
  %136 = icmp ult i64 %132, %135
  br i1 %136, label %137, label %142

137:                                              ; preds = %128
  %138 = getelementptr inbounds [1 x %struct.CORD_Pos], ptr %12, i64 0, i64 0
  %139 = getelementptr inbounds nuw %struct.CORD_Pos, ptr %138, i32 0, i32 0
  %140 = load i64, ptr %139, align 16, !tbaa !20
  %141 = add i64 %140, 1
  store i64 %141, ptr %139, align 16, !tbaa !20
  br label %144

142:                                              ; preds = %128
  %143 = getelementptr inbounds [1 x %struct.CORD_Pos], ptr %12, i64 0, i64 0
  call void @CORD__next(ptr noundef %143)
  br label %144

144:                                              ; preds = %142, %137
  %145 = getelementptr inbounds [1 x %struct.CORD_Pos], ptr %13, i64 0, i64 0
  %146 = getelementptr inbounds nuw %struct.CORD_Pos, ptr %145, i32 0, i32 0
  %147 = load i64, ptr %146, align 16, !tbaa !20
  %148 = add i64 %147, 1
  %149 = getelementptr inbounds [1 x %struct.CORD_Pos], ptr %13, i64 0, i64 0
  %150 = getelementptr inbounds nuw %struct.CORD_Pos, ptr %149, i32 0, i32 4
  %151 = load i64, ptr %150, align 16, !tbaa !19
  %152 = icmp ult i64 %148, %151
  br i1 %152, label %153, label %158

153:                                              ; preds = %144
  %154 = getelementptr inbounds [1 x %struct.CORD_Pos], ptr %13, i64 0, i64 0
  %155 = getelementptr inbounds nuw %struct.CORD_Pos, ptr %154, i32 0, i32 0
  %156 = load i64, ptr %155, align 16, !tbaa !20
  %157 = add i64 %156, 1
  store i64 %157, ptr %155, align 16, !tbaa !20
  br label %160

158:                                              ; preds = %144
  %159 = getelementptr inbounds [1 x %struct.CORD_Pos], ptr %13, i64 0, i64 0
  call void @CORD__next(ptr noundef %159)
  br label %160

160:                                              ; preds = %158, %153
  %161 = load i64, ptr %14, align 8, !tbaa !11
  %162 = add i64 %161, 1
  store i64 %162, ptr %14, align 8, !tbaa !11
  store i32 0, ptr %17, align 4
  br label %163

163:                                              ; preds = %160, %122
  call void @llvm.lifetime.end.p0(i64 1, ptr %19) #9
  call void @llvm.lifetime.end.p0(i64 1, ptr %18) #9
  %164 = load i32, ptr %17, align 4
  switch i32 %164, label %263 [
    i32 0, label %165
  ]

165:                                              ; preds = %163
  br label %262

166:                                              ; preds = %57
  call void @llvm.lifetime.start.p0(i64 4, ptr %20) #9
  %167 = load i64, ptr %15, align 8, !tbaa !11
  %168 = load i64, ptr %16, align 8, !tbaa !11
  %169 = icmp sgt i64 %167, %168
  br i1 %169, label %170, label %172

170:                                              ; preds = %166
  %171 = load i64, ptr %16, align 8, !tbaa !11
  store i64 %171, ptr %15, align 8, !tbaa !11
  br label %172

172:                                              ; preds = %170, %166
  %173 = load i64, ptr %15, align 8, !tbaa !11
  %174 = load i64, ptr %14, align 8, !tbaa !11
  %175 = add i64 %174, %173
  store i64 %175, ptr %14, align 8, !tbaa !11
  %176 = load i64, ptr %14, align 8, !tbaa !11
  %177 = load i64, ptr %11, align 8, !tbaa !11
  %178 = icmp ugt i64 %176, %177
  br i1 %178, label %179, label %185

179:                                              ; preds = %172
  %180 = load i64, ptr %14, align 8, !tbaa !11
  %181 = load i64, ptr %11, align 8, !tbaa !11
  %182 = sub i64 %180, %181
  %183 = load i64, ptr %15, align 8, !tbaa !11
  %184 = sub nsw i64 %183, %182
  store i64 %184, ptr %15, align 8, !tbaa !11
  br label %185

185:                                              ; preds = %179, %172
  %186 = getelementptr inbounds [1 x %struct.CORD_Pos], ptr %12, i64 0, i64 0
  %187 = getelementptr inbounds nuw %struct.CORD_Pos, ptr %186, i32 0, i32 2
  %188 = load ptr, ptr %187, align 16, !tbaa !21
  %189 = getelementptr inbounds [1 x %struct.CORD_Pos], ptr %12, i64 0, i64 0
  %190 = getelementptr inbounds nuw %struct.CORD_Pos, ptr %189, i32 0, i32 0
  %191 = load i64, ptr %190, align 16, !tbaa !20
  %192 = getelementptr inbounds [1 x %struct.CORD_Pos], ptr %12, i64 0, i64 0
  %193 = getelementptr inbounds nuw %struct.CORD_Pos, ptr %192, i32 0, i32 3
  %194 = load i64, ptr %193, align 8, !tbaa !22
  %195 = sub i64 %191, %194
  %196 = getelementptr inbounds nuw i8, ptr %188, i64 %195
  %197 = getelementptr inbounds [1 x %struct.CORD_Pos], ptr %13, i64 0, i64 0
  %198 = getelementptr inbounds nuw %struct.CORD_Pos, ptr %197, i32 0, i32 2
  %199 = load ptr, ptr %198, align 16, !tbaa !21
  %200 = getelementptr inbounds [1 x %struct.CORD_Pos], ptr %13, i64 0, i64 0
  %201 = getelementptr inbounds nuw %struct.CORD_Pos, ptr %200, i32 0, i32 0
  %202 = load i64, ptr %201, align 16, !tbaa !20
  %203 = getelementptr inbounds [1 x %struct.CORD_Pos], ptr %13, i64 0, i64 0
  %204 = getelementptr inbounds nuw %struct.CORD_Pos, ptr %203, i32 0, i32 3
  %205 = load i64, ptr %204, align 8, !tbaa !22
  %206 = sub i64 %202, %205
  %207 = getelementptr inbounds nuw i8, ptr %199, i64 %206
  %208 = load i64, ptr %15, align 8, !tbaa !11
  %209 = call i32 @strncmp(ptr noundef %196, ptr noundef %207, i64 noundef %208) #12
  store i32 %209, ptr %20, align 4, !tbaa !13
  %210 = load i32, ptr %20, align 4, !tbaa !13
  %211 = icmp ne i32 %210, 0
  br i1 %211, label %212, label %214

212:                                              ; preds = %185
  %213 = load i32, ptr %20, align 4, !tbaa !13
  store i32 %213, ptr %6, align 4
  store i32 1, ptr %17, align 4
  br label %259

214:                                              ; preds = %185
  %215 = load i64, ptr %15, align 8, !tbaa !11
  %216 = sub i64 %215, 1
  %217 = getelementptr inbounds [1 x %struct.CORD_Pos], ptr %12, i64 0, i64 0
  %218 = getelementptr inbounds nuw %struct.CORD_Pos, ptr %217, i32 0, i32 0
  %219 = load i64, ptr %218, align 16, !tbaa !20
  %220 = add i64 %219, %216
  store i64 %220, ptr %218, align 16, !tbaa !20
  %221 = getelementptr inbounds [1 x %struct.CORD_Pos], ptr %12, i64 0, i64 0
  %222 = getelementptr inbounds nuw %struct.CORD_Pos, ptr %221, i32 0, i32 0
  %223 = load i64, ptr %222, align 16, !tbaa !20
  %224 = add i64 %223, 1
  %225 = getelementptr inbounds [1 x %struct.CORD_Pos], ptr %12, i64 0, i64 0
  %226 = getelementptr inbounds nuw %struct.CORD_Pos, ptr %225, i32 0, i32 4
  %227 = load i64, ptr %226, align 16, !tbaa !19
  %228 = icmp ult i64 %224, %227
  br i1 %228, label %229, label %234

229:                                              ; preds = %214
  %230 = getelementptr inbounds [1 x %struct.CORD_Pos], ptr %12, i64 0, i64 0
  %231 = getelementptr inbounds nuw %struct.CORD_Pos, ptr %230, i32 0, i32 0
  %232 = load i64, ptr %231, align 16, !tbaa !20
  %233 = add i64 %232, 1
  store i64 %233, ptr %231, align 16, !tbaa !20
  br label %236

234:                                              ; preds = %214
  %235 = getelementptr inbounds [1 x %struct.CORD_Pos], ptr %12, i64 0, i64 0
  call void @CORD__next(ptr noundef %235)
  br label %236

236:                                              ; preds = %234, %229
  %237 = load i64, ptr %15, align 8, !tbaa !11
  %238 = sub i64 %237, 1
  %239 = getelementptr inbounds [1 x %struct.CORD_Pos], ptr %13, i64 0, i64 0
  %240 = getelementptr inbounds nuw %struct.CORD_Pos, ptr %239, i32 0, i32 0
  %241 = load i64, ptr %240, align 16, !tbaa !20
  %242 = add i64 %241, %238
  store i64 %242, ptr %240, align 16, !tbaa !20
  %243 = getelementptr inbounds [1 x %struct.CORD_Pos], ptr %13, i64 0, i64 0
  %244 = getelementptr inbounds nuw %struct.CORD_Pos, ptr %243, i32 0, i32 0
  %245 = load i64, ptr %244, align 16, !tbaa !20
  %246 = add i64 %245, 1
  %247 = getelementptr inbounds [1 x %struct.CORD_Pos], ptr %13, i64 0, i64 0
  %248 = getelementptr inbounds nuw %struct.CORD_Pos, ptr %247, i32 0, i32 4
  %249 = load i64, ptr %248, align 16, !tbaa !19
  %250 = icmp ult i64 %246, %249
  br i1 %250, label %251, label %256

251:                                              ; preds = %236
  %252 = getelementptr inbounds [1 x %struct.CORD_Pos], ptr %13, i64 0, i64 0
  %253 = getelementptr inbounds nuw %struct.CORD_Pos, ptr %252, i32 0, i32 0
  %254 = load i64, ptr %253, align 16, !tbaa !20
  %255 = add i64 %254, 1
  store i64 %255, ptr %253, align 16, !tbaa !20
  br label %258

256:                                              ; preds = %236
  %257 = getelementptr inbounds [1 x %struct.CORD_Pos], ptr %13, i64 0, i64 0
  call void @CORD__next(ptr noundef %257)
  br label %258

258:                                              ; preds = %256, %251
  store i32 0, ptr %17, align 4
  br label %259

259:                                              ; preds = %258, %212
  call void @llvm.lifetime.end.p0(i64 4, ptr %20) #9
  %260 = load i32, ptr %17, align 4
  switch i32 %260, label %263 [
    i32 0, label %261
  ]

261:                                              ; preds = %259
  br label %262

262:                                              ; preds = %261, %165
  store i32 0, ptr %17, align 4
  br label %263

263:                                              ; preds = %262, %259, %163, %47, %36
  call void @llvm.lifetime.end.p0(i64 8, ptr %16) #9
  call void @llvm.lifetime.end.p0(i64 8, ptr %15) #9
  %264 = load i32, ptr %17, align 4
  switch i32 %264, label %267 [
    i32 0, label %265
  ]

265:                                              ; preds = %263
  br label %27, !llvm.loop !23

266:                                              ; preds = %27
  store i32 0, ptr %6, align 4
  store i32 1, ptr %17, align 4
  br label %267

267:                                              ; preds = %266, %263
  call void @llvm.lifetime.end.p0(i64 8, ptr %14) #9
  call void @llvm.lifetime.end.p0(i64 832, ptr %13) #9
  call void @llvm.lifetime.end.p0(i64 832, ptr %12) #9
  %268 = load i32, ptr %6, align 4
  ret i32 %268
}