; Function Attrs: nounwind uwtable
define i32 @CORD_ncmp(ptr noundef %0, i64 noundef %1, ptr noundef %2, i64 noundef %3, i64 noundef %4) local_unnamed_addr #0 {
  %6 = alloca [1 x %struct.CORD_Pos], align 16
  %7 = alloca [1 x %struct.CORD_Pos], align 16
  call void @llvm.lifetime.start.p0(i64 832, ptr nonnull %6) #16
  call void @llvm.lifetime.start.p0(i64 832, ptr nonnull %7) #16
  call void @CORD_set_pos(ptr noundef nonnull %6, ptr noundef %0, i64 noundef %1) #16
  call void @CORD_set_pos(ptr noundef nonnull %7, ptr noundef %2, i64 noundef %3) #16
  %.not72 = icmp eq i64 %4, 0
  br i1 %.not72, label %.thread63, label %.lr.ph

.lr.ph:                                           ; preds = %5
  %8 = getelementptr inbounds nuw i8, ptr %6, i64 8
  %9 = getelementptr inbounds nuw i8, ptr %7, i64 8
  %10 = getelementptr inbounds nuw i8, ptr %6, i64 32
  %11 = getelementptr inbounds nuw i8, ptr %7, i64 32
  %12 = getelementptr inbounds nuw i8, ptr %6, i64 16
  %13 = getelementptr inbounds nuw i8, ptr %6, i64 24
  %14 = getelementptr inbounds nuw i8, ptr %7, i64 16
  %15 = getelementptr inbounds nuw i8, ptr %7, i64 24
  br label %16

16:                                               ; preds = %.lr.ph, %.thread60
  %.03167 = phi i64 [ 0, %.lr.ph ], [ %.132, %.thread60 ]
  %17 = load i32, ptr %8, align 8, !tbaa !13
  %.not = icmp eq i32 %17, 1431655765
  %18 = load i32, ptr %9, align 8, !tbaa !13
  br i1 %.not, label %19, label %21

19:                                               ; preds = %16
  %.not51 = icmp ne i32 %18, 1431655765
  %20 = sext i1 %.not51 to i32
  br label %.thread63

21:                                               ; preds = %16
  %.not52 = icmp eq i32 %18, 1431655765
  br i1 %.not52, label %.thread63, label %22

22:                                               ; preds = %21
  %23 = load i64, ptr %10, align 16, !tbaa !17
  %24 = load i64, ptr %6, align 16, !tbaa !18
  %25 = sub nsw i64 %23, %24
  %26 = icmp slt i64 %25, 1
  br i1 %26, label %32, label %27

27:                                               ; preds = %22
  %28 = load i64, ptr %11, align 16, !tbaa !17
  %29 = load i64, ptr %7, align 16, !tbaa !18
  %30 = sub nsw i64 %28, %29
  %31 = icmp slt i64 %30, 1
  br i1 %31, label %32, label %72

32:                                               ; preds = %27, %22
  %.not54 = icmp eq i64 %23, 0
  br i1 %.not54, label %39, label %33

33:                                               ; preds = %32
  %34 = load ptr, ptr %12, align 16, !tbaa !19
  %35 = load i64, ptr %13, align 8, !tbaa !20
  %36 = sub i64 %24, %35
  %37 = getelementptr inbounds nuw i8, ptr %34, i64 %36
  %38 = load i8, ptr %37, align 1, !tbaa !8
  br label %41

39:                                               ; preds = %32
  %40 = call signext i8 @CORD__pos_fetch(ptr noundef nonnull %6) #16
  br label %41

41:                                               ; preds = %39, %33
  %.in = phi i8 [ %38, %33 ], [ %40, %39 ]
  %42 = load i64, ptr %11, align 16, !tbaa !17
  %.not55 = icmp eq i64 %42, 0
  br i1 %.not55, label %50, label %43

43:                                               ; preds = %41
  %44 = load ptr, ptr %14, align 16, !tbaa !19
  %45 = load i64, ptr %7, align 16, !tbaa !18
  %46 = load i64, ptr %15, align 8, !tbaa !20
  %47 = sub i64 %45, %46
  %48 = getelementptr inbounds nuw i8, ptr %44, i64 %47
  %49 = load i8, ptr %48, align 1, !tbaa !8
  br label %52

50:                                               ; preds = %41
  %51 = call signext i8 @CORD__pos_fetch(ptr noundef nonnull %7) #16
  br label %52

52:                                               ; preds = %50, %43
  %.in56 = phi i8 [ %49, %43 ], [ %51, %50 ]
  %.not57 = icmp eq i8 %.in, %.in56
  br i1 %.not57, label %53, label %68

53:                                               ; preds = %52
  %54 = load i64, ptr %6, align 16, !tbaa !18
  %55 = add i64 %54, 1
  %56 = load i64, ptr %10, align 16, !tbaa !17
  %57 = icmp ult i64 %55, %56
  br i1 %57, label %58, label %59

58:                                               ; preds = %53
  store i64 %55, ptr %6, align 16, !tbaa !18
  br label %60

59:                                               ; preds = %53
  call void @CORD__next(ptr noundef nonnull %6) #16
  br label %60

60:                                               ; preds = %59, %58
  %61 = load i64, ptr %7, align 16, !tbaa !18
  %62 = add i64 %61, 1
  %63 = load i64, ptr %11, align 16, !tbaa !17
  %64 = icmp ult i64 %62, %63
  br i1 %64, label %65, label %66

65:                                               ; preds = %60
  store i64 %62, ptr %7, align 16, !tbaa !18
  br label %.thread

66:                                               ; preds = %60
  call void @CORD__next(ptr noundef nonnull %7) #16
  br label %.thread

.thread:                                          ; preds = %65, %66
  %67 = add nuw i64 %.03167, 1
  br label %.thread60

68:                                               ; preds = %52
  %69 = sext i8 %.in56 to i32
  %70 = sext i8 %.in to i32
  %71 = sub nsw i32 %70, %69
  br label %.thread63

72:                                               ; preds = %27
  %spec.select = call i64 @llvm.umin.i64(i64 %25, i64 %30)
  %73 = add i64 %spec.select, %.03167
  %74 = call i64 @llvm.usub.sat.i64(i64 %73, i64 %4)
  %.136 = sub i64 %spec.select, %74
  %75 = load ptr, ptr %12, align 16, !tbaa !19
  %76 = load i64, ptr %13, align 8, !tbaa !20
  %77 = sub i64 %24, %76
  %78 = getelementptr inbounds nuw i8, ptr %75, i64 %77
  %79 = load ptr, ptr %14, align 16, !tbaa !19
  %80 = load i64, ptr %15, align 8, !tbaa !20
  %81 = sub i64 %29, %80
  %82 = getelementptr inbounds nuw i8, ptr %79, i64 %81
  %83 = call i32 @strncmp(ptr noundef %78, ptr noundef %82, i64 noundef %.136) #20
  %.not53 = icmp eq i32 %83, 0
  br i1 %.not53, label %84, label %.thread63

84:                                               ; preds = %72
  %85 = add nsw i64 %.136, -1
  %86 = add i64 %85, %24
  store i64 %86, ptr %6, align 16, !tbaa !18
  %87 = add i64 %.136, %24
  %88 = icmp ult i64 %87, %23
  br i1 %88, label %89, label %90

89:                                               ; preds = %84
  store i64 %87, ptr %6, align 16, !tbaa !18
  br label %91

90:                                               ; preds = %84
  call void @CORD__next(ptr noundef nonnull %6) #16
  %.pre = load i64, ptr %7, align 16, !tbaa !18
  %.pre73 = load i64, ptr %11, align 16, !tbaa !17
  br label %91

91:                                               ; preds = %90, %89
  %92 = phi i64 [ %.pre73, %90 ], [ %28, %89 ]
  %93 = phi i64 [ %.pre, %90 ], [ %29, %89 ]
  %94 = add i64 %93, %85
  store i64 %94, ptr %7, align 16, !tbaa !18
  %95 = add i64 %93, %.136
  %96 = icmp ult i64 %95, %92
  br i1 %96, label %97, label %98

97:                                               ; preds = %91
  store i64 %95, ptr %7, align 16, !tbaa !18
  br label %.thread60

98:                                               ; preds = %91
  call void @CORD__next(ptr noundef nonnull %7) #16
  br label %.thread60

.thread60:                                        ; preds = %98, %97, %.thread
  %.132 = phi i64 [ %67, %.thread ], [ %73, %97 ], [ %73, %98 ]
  %99 = icmp ult i64 %.132, %4
  br i1 %99, label %16, label %.thread63, !llvm.loop !21

.thread63:                                        ; preds = %.thread60, %21, %72, %5, %19, %68
  %.5 = phi i32 [ %20, %19 ], [ %71, %68 ], [ 0, %5 ], [ 0, %.thread60 ], [ 1, %21 ], [ %83, %72 ]
  call void @llvm.lifetime.end.p0(i64 832, ptr nonnull %7) #16
  call void @llvm.lifetime.end.p0(i64 832, ptr nonnull %6) #16
  ret i32 %.5
}